; Function Attrs: mustprogress nofree norecurse nosync nounwind willreturn memory(argmem: write) uwtable
define internal void @scon(ptr noundef writeonly captures(none) initializes((272, 297), (304, 320)) %0) #1 {
  %2 = getelementptr inbounds nuw i8, ptr %0, i64 272
  tail call void @llvm.memset.p0.i64(ptr noundef nonnull align 8 dereferenceable(16) %2, i8 0, i64 16, i1 false)
  %3 = getelementptr inbounds nuw i8, ptr %0, i64 276
  store i32 -1, ptr %3, align 4, !tbaa !111
  %4 = getelementptr inbounds nuw i8, ptr %0, i64 288
  store ptr null, ptr %4, align 8, !tbaa !114
  %5 = getelementptr inbounds nuw i8, ptr %0, i64 296
  store i8 0, ptr %5, align 8, !tbaa !115
  %6 = getelementptr inbounds nuw i8, ptr %0, i64 304
  tail call void @llvm.memset.p0.i64(ptr noundef nonnull align 8 dereferenceable(16) %6, i8 0, i64 16, i1 false)
  ret void
}